target datalayout = "e-m:e-p270:32:32-p271:32:32-p272:64:64-i64:64-i128:128-f80:128-n8:16:32:64-S128"
target triple = "x86_64-pc-linux-gnu"

%"class.std::__shared_count" = type { ptr }
%"class.pxrInternal_v0_24__pxrReserved__::UsdZipFile" = type { %"class.std::shared_ptr.11" }
%"class.std::shared_ptr.11" = type { %"class.std::__shared_ptr.12" }
%"class.std::__shared_ptr.12" = type { ptr, %"class.std::__shared_count" }
%"class.std::_Sp_counted_base" = type { ptr, i32, i32 }
%struct._Deleter = type { %"class.pxrInternal_v0_24__pxrReserved__::UsdZipFile" }
%"class.std::_Sp_counted_deleter" = type { %"class.std::_Sp_counted_base", %"class.std::_Sp_counted_deleter<const char *, _Deleter, std::allocator<void>, __gnu_cxx::_S_atomic>::_Impl" }
%"class.std::_Sp_counted_deleter<const char *, _Deleter, std::allocator<void>, __gnu_cxx::_S_atomic>::_Impl" = type { %"struct.std::_Sp_ebo_helper", ptr }
%"struct.std::_Sp_ebo_helper" = type { %struct._Deleter }

; Function Attrs: mustprogress nounwind uwtable
define internal noundef nonnull align 8 dereferenceable(16) ptr @_ZNSt14_Sp_ebo_helperILi0EZNK32pxrInternal_v0_24__pxrReserved__12_GLOBAL__N_16_Asset9GetBufferEvE8_DeleterLb0EE6_S_getERS4_(ptr noundef nonnull align 8 dereferenceable(16) %0) #2 align 2 {
  %2 = alloca ptr, align 8
  store ptr %0, ptr %2, align 8
  %3 = load ptr, ptr %2, align 8
  %4 = getelementptr inbounds nuw %"struct.std::_Sp_ebo_helper", ptr %3, i32 0, i32 0
  ret ptr %4
}

; Function Attrs: mustprogress nounwind uwtable
define internal noundef nonnull align 8 dereferenceable(16) ptr @_ZNSt19_Sp_counted_deleterIPKcZNK32pxrInternal_v0_24__pxrReserved__12_GLOBAL__N_16_Asset9GetBufferEvE8_DeleterSaIvELN9__gnu_cxx12_Lock_policyE2EE5_Impl6_M_delEv(ptr noundef nonnull align 8 dereferenceable(24) %0) #2 align 2 personality ptr @__gxx_personality_v0 {
  %2 = alloca ptr, align 8
  store ptr %0, ptr %2, align 8
  %3 = load ptr, ptr %2, align 8
  %4 = invoke noundef nonnull align 8 dereferenceable(16) ptr @_ZNSt14_Sp_ebo_helperILi0EZNK32pxrInternal_v0_24__pxrReserved__12_GLOBAL__N_16_Asset9GetBufferEvE8_DeleterLb0EE6_S_getERS4_(ptr noundef nonnull align 8 dereferenceable(16) %3)
          to label %5 unwind label %6

5:                                                ; preds = %1
  ret ptr %4

6:                                                ; preds = %1
  %7 = landingpad { ptr, i32 }
          catch ptr null
  %8 = extractvalue { ptr, i32 } %7, 0
  call void @__clang_call_terminate(ptr %8) #17
  unreachable
}

; Function Attrs: mustprogress nounwind uwtable
define internal void @_ZNSt19_Sp_counted_deleterIPKcZNK32pxrInternal_v0_24__pxrReserved__12_GLOBAL__N_16_Asset9GetBufferEvE8_DeleterSaIvELN9__gnu_cxx12_Lock_policyE2EE10_M_disposeEv(ptr noundef nonnull align 8 dereferenceable(40) %0) unnamed_addr #2 align 2 personality ptr @__gxx_personality_v0 {
  %2 = alloca ptr, align 8
  store ptr %0, ptr %2, align 8
  %3 = load ptr, ptr %2, align 8
  %4 = getelementptr inbounds nuw %"class.std::_Sp_counted_deleter", ptr %3, i32 0, i32 1
  %5 = call noundef nonnull align 8 dereferenceable(16) ptr @_ZNSt19_Sp_counted_deleterIPKcZNK32pxrInternal_v0_24__pxrReserved__12_GLOBAL__N_16_Asset9GetBufferEvE8_DeleterSaIvELN9__gnu_cxx12_Lock_policyE2EE5_Impl6_M_delEv(ptr noundef nonnull align 8 dereferenceable(24) %4) #1
  %6 = getelementptr inbounds nuw %"class.std::_Sp_counted_deleter", ptr %3, i32 0, i32 1
  %7 = getelementptr inbounds nuw %"class.std::_Sp_counted_deleter<const char *, _Deleter, std::allocator<void>, __gnu_cxx::_S_atomic>::_Impl", ptr %6, i32 0, i32 1
  %8 = load ptr, ptr %7, align 8
  invoke void @_ZZNK32pxrInternal_v0_24__pxrReserved__12_GLOBAL__N_16_Asset9GetBufferEvEN8_DeleterclEPKc(ptr noundef nonnull align 8 dereferenceable(16) %5, ptr noundef %8)
          to label %9 unwind label %10

9:                                                ; preds = %1
  ret void

10:                                               ; preds = %1
  %11 = landingpad { ptr, i32 }
          catch ptr null
  %12 = extractvalue { ptr, i32 } %11, 0
  call void @__clang_call_terminate(ptr %12) #17
  unreachable
}